target datalayout = "e-m:e-p270:32:32-p271:32:32-p272:64:64-i64:64-i128:128-f80:128-n8:16:32:64-S128"
target triple = "x86_64-pc-linux-gnu"

%class.btPersistentManifold = type { %struct.btTypedObject, [4 x i8], [4 x %class.btManifoldPoint], ptr, ptr, i32, float, float, i32, i32, i32 }
%struct.btTypedObject = type { i32 }
%class.btManifoldPoint = type <{ %class.btVector3, %class.btVector3, %class.btVector3, %class.btVector3, %class.btVector3, float, float, float, float, float, i32, i32, i32, i32, [4 x i8], ptr, i32, float, float, float, float, float, float, %union.anon.0, %union.anon.1, float, i32, %class.btVector3, %class.btVector3, [4 x i8] }>
%union.anon.0 = type { float }
%union.anon.1 = type { float }
%class.btVector3 = type { [4 x float] }

; Function Attrs: inlinehint mustprogress nounwind uwtable
define linkonce_odr dso_local void @_ZN9btVector3C2Ev(ptr noundef nonnull align 4 dereferenceable(16) %0) unnamed_addr #7 comdat align 2 {
  %2 = alloca ptr, align 8
  store ptr %0, ptr %2, align 8, !tbaa !50
  ret void
}

; Function Attrs: mustprogress uwtable
define linkonce_odr dso_local void @_ZN15btManifoldPointC2Ev(ptr noundef nonnull align 8 dereferenceable(204) %0) unnamed_addr #2 comdat align 2 {
  %2 = alloca ptr, align 8
  store ptr %0, ptr %2, align 8, !tbaa !27
  %3 = load ptr, ptr %2, align 8
  %4 = getelementptr inbounds nuw %class.btManifoldPoint, ptr %3, i32 0, i32 0
  call void @_ZN9btVector3C2Ev(ptr noundef nonnull align 4 dereferenceable(16) %4)
  %5 = getelementptr inbounds nuw %class.btManifoldPoint, ptr %3, i32 0, i32 1
  call void @_ZN9btVector3C2Ev(ptr noundef nonnull align 4 dereferenceable(16) %5)
  %6 = getelementptr inbounds nuw %class.btManifoldPoint, ptr %3, i32 0, i32 2
  call void @_ZN9btVector3C2Ev(ptr noundef nonnull align 4 dereferenceable(16) %6)
  %7 = getelementptr inbounds nuw %class.btManifoldPoint, ptr %3, i32 0, i32 3
  call void @_ZN9btVector3C2Ev(ptr noundef nonnull align 4 dereferenceable(16) %7)
  %8 = getelementptr inbounds nuw %class.btManifoldPoint, ptr %3, i32 0, i32 4
  call void @_ZN9btVector3C2Ev(ptr noundef nonnull align 4 dereferenceable(16) %8)
  %9 = getelementptr inbounds nuw %class.btManifoldPoint, ptr %3, i32 0, i32 15
  store ptr null, ptr %9, align 8, !tbaa !29
  %10 = getelementptr inbounds nuw %class.btManifoldPoint, ptr %3, i32 0, i32 16
  store i32 0, ptr %10, align 8, !tbaa !32
  %11 = getelementptr inbounds nuw %class.btManifoldPoint, ptr %3, i32 0, i32 17
  store float 0.000000e+00, ptr %11, align 4, !tbaa !33
  %12 = getelementptr inbounds nuw %class.btManifoldPoint, ptr %3, i32 0, i32 18
  store float 0.000000e+00, ptr %12, align 8, !tbaa !34
  %13 = getelementptr inbounds nuw %class.btManifoldPoint, ptr %3, i32 0, i32 19
  store float 0.000000e+00, ptr %13, align 4, !tbaa !35
  %14 = getelementptr inbounds nuw %class.btManifoldPoint, ptr %3, i32 0, i32 20
  store float 0.000000e+00, ptr %14, align 8, !tbaa !36
  %15 = getelementptr inbounds nuw %class.btManifoldPoint, ptr %3, i32 0, i32 21
  store float 0.000000e+00, ptr %15, align 4, !tbaa !37
  %16 = getelementptr inbounds nuw %class.btManifoldPoint, ptr %3, i32 0, i32 22
  store float 0.000000e+00, ptr %16, align 8, !tbaa !38
  %17 = getelementptr inbounds nuw %class.btManifoldPoint, ptr %3, i32 0, i32 23
  store float 0.000000e+00, ptr %17, align 4, !tbaa !11
  %18 = getelementptr inbounds nuw %class.btManifoldPoint, ptr %3, i32 0, i32 24
  store float 0.000000e+00, ptr %18, align 8, !tbaa !11
  %19 = getelementptr inbounds nuw %class.btManifoldPoint, ptr %3, i32 0, i32 25
  store float 0.000000e+00, ptr %19, align 4, !tbaa !39
  %20 = getelementptr inbounds nuw %class.btManifoldPoint, ptr %3, i32 0, i32 26
  store i32 0, ptr %20, align 8, !tbaa !40
  %21 = getelementptr inbounds nuw %class.btManifoldPoint, ptr %3, i32 0, i32 27
  call void @_ZN9btVector3C2Ev(ptr noundef nonnull align 4 dereferenceable(16) %21)
  %22 = getelementptr inbounds nuw %class.btManifoldPoint, ptr %3, i32 0, i32 28
  call void @_ZN9btVector3C2Ev(ptr noundef nonnull align 4 dereferenceable(16) %22)
  ret void
}

; Function Attrs: mustprogress nounwind uwtable
define linkonce_odr dso_local void @_ZN13btTypedObjectC2Ei(ptr noundef nonnull align 4 dereferenceable(4) %0, i32 noundef %1) unnamed_addr #1 comdat align 2 {
  %3 = alloca ptr, align 8
  %4 = alloca i32, align 4
  store ptr %0, ptr %3, align 8, !tbaa !24
  store i32 %1, ptr %4, align 4, !tbaa !9
  %5 = load ptr, ptr %3, align 8
  %6 = getelementptr inbounds nuw %struct.btTypedObject, ptr %5, i32 0, i32 0
  %7 = load i32, ptr %4, align 4, !tbaa !9
  store i32 %7, ptr %6, align 4, !tbaa !26
  ret void
}

; Function Attrs: mustprogress uwtable
define dso_local void @_ZN20btPersistentManifoldC2Ev(ptr noundef nonnull align 8 dereferenceable(880) %0) unnamed_addr #2 align 2 {
  %2 = alloca ptr, align 8
  store ptr %0, ptr %2, align 8, !tbaa !12
  %3 = load ptr, ptr %2, align 8
  call void @_ZN13btTypedObjectC2Ei(ptr noundef nonnull align 4 dereferenceable(4) %3, i32 noundef 1025)
  %4 = getelementptr inbounds nuw %class.btPersistentManifold, ptr %3, i32 0, i32 2
  %5 = getelementptr inbounds [4 x %class.btManifoldPoint], ptr %4, i32 0, i32 0
  %6 = getelementptr inbounds %class.btManifoldPoint, ptr %5, i64 4
  br label %7

7:                                                ; preds = %7, %1
  %8 = phi ptr [ %5, %1 ], [ %9, %7 ]
  call void @_ZN15btManifoldPointC2Ev(ptr noundef nonnull align 8 dereferenceable(204) %8)
  %9 = getelementptr inbounds %class.btManifoldPoint, ptr %8, i64 1
  %10 = icmp eq ptr %9, %6
  br i1 %10, label %11, label %7

11:                                               ; preds = %7
  %12 = getelementptr inbounds nuw %class.btPersistentManifold, ptr %3, i32 0, i32 3
  store ptr null, ptr %12, align 8, !tbaa !14
  %13 = getelementptr inbounds nuw %class.btPersistentManifold, ptr %3, i32 0, i32 4
  store ptr null, ptr %13, align 8, !tbaa !19
  %14 = getelementptr inbounds nuw %class.btPersistentManifold, ptr %3, i32 0, i32 5
  store i32 0, ptr %14, align 8, !tbaa !20
  %15 = getelementptr inbounds nuw %class.btPersistentManifold, ptr %3, i32 0, i32 8
  store i32 0, ptr %15, align 4, !tbaa !21
  %16 = getelementptr inbounds nuw %class.btPersistentManifold, ptr %3, i32 0, i32 9
  store i32 0, ptr %16, align 8, !tbaa !22
  %17 = getelementptr inbounds nuw %class.btPersistentManifold, ptr %3, i32 0, i32 10
  store i32 0, ptr %17, align 4, !tbaa !23
  ret void
}