; Function Attrs: mustprogress nofree norecurse nosync nounwind memory(argmem: write) uwtable
define dso_local void @_ZN20btPersistentManifoldC2Ev(ptr noundef nonnull writeonly align 8 captures(none) dereferenceable(880) initializes((0, 4)) %0) unnamed_addr #0 align 2 {
  store i32 1025, ptr %0, align 8, !tbaa !4
  %invariant.gep = getelementptr inbounds nuw i8, ptr %0, i64 120
  br label %2

2:                                                ; preds = %2, %1
  %.idx = phi i64 [ 8, %1 ], [ %.add, %2 ]
  %gep = getelementptr inbounds nuw i8, ptr %invariant.gep, i64 %.idx
  tail call void @llvm.memset.p0.i64(ptr noundef nonnull align 8 dereferenceable(52) %gep, i8 0, i64 52, i1 false)
  %.add = add nuw nsw i64 %.idx, 208
  %3 = icmp eq i64 %.add, 840
  br i1 %3, label %4, label %2

4:                                                ; preds = %2
  %5 = getelementptr inbounds nuw i8, ptr %0, i64 840
  %6 = getelementptr inbounds nuw i8, ptr %0, i64 868
  store i32 0, ptr %6, align 4, !tbaa !9
  %7 = getelementptr inbounds nuw i8, ptr %0, i64 872
  store i32 0, ptr %7, align 8, !tbaa !14
  %8 = getelementptr inbounds nuw i8, ptr %0, i64 876
  store i32 0, ptr %8, align 4, !tbaa !15
  tail call void @llvm.memset.p0.i64(ptr noundef nonnull align 8 dereferenceable(20) %5, i8 0, i64 20, i1 false)
  ret void
}